(dp1
S'files'
p2
(dp3
S'_home_matheus_pyramid_instances_python_virtualenv_lib_python2_7_site-packages_nose_importer'
p4
(dp5
S'index'
p6
(dp7
S'html_filename'
p8
S'_home_matheus_pyramid_instances_python_virtualenv_lib_python2_7_site-packages_nose_importer.html'
p9
sS'name'
p10
S'/home/matheus/pyramid_instances/python_virtualenv/lib/python2.7/site-packages/nose/importer'
p11
sS'nums'
p12
ccopy_reg
_reconstructor
p13
(ccoverage.results
Numbers
p14
c__builtin__
object
p15
NtRp16
(dp17
S'n_files'
p18
I1
sS'n_branches'
p19
I0
sS'n_statements'
p20
I101
sS'n_excluded'
p21
I0
sS'n_partial_branches'
p22
I0
sS'n_missing'
p23
I56
sS'n_missing_branches'
p24
I0
sbssS'hash'
p25
S'\xa35t\xd7\x9a\nsq\x1dZ\xa4h8\xfaP\xe7'
p26
ssS'_home_matheus_pyramid_instances_python_virtualenv_lib_python2_7_site-packages_Jinja2-2_7_2-py2_7_egg_jinja2_defaults'
p27
(dp28
g6
(dp29
g8
S'_home_matheus_pyramid_instances_python_virtualenv_lib_python2_7_site-packages_Jinja2-2_7_2-py2_7_egg_jinja2_defaults.html'
p30
sg10
S'/home/matheus/pyramid_instances/python_virtualenv/lib/python2.7/site-packages/Jinja2-2.7.2-py2.7.egg/jinja2/defaults'
p31
sg12
g13
(g14
g15
NtRp32
(dp33
g18
I1
sg19
I0
sg20
I19
sg21
I0
sg22
I0
sg23
I0
sg24
I0
sbssg25
S'\xe2s1\x07\x11\xcc\xb8t@\xa5n<\x98\x97"j'
p34
ssS'_home_matheus_pyramid_instances_python_virtualenv_lib_python2_7_site-packages_nose_util'
p35
(dp36
g6
(dp37
g8
S'_home_matheus_pyramid_instances_python_virtualenv_lib_python2_7_site-packages_nose_util.html'
p38
sg10
S'/home/matheus/pyramid_instances/python_virtualenv/lib/python2.7/site-packages/nose/util'
p39
sg12
g13
(g14
g15
NtRp40
(dp41
g18
I1
sg19
I0
sg20
I341
sg21
I0
sg22
I0
sg23
I274
sg24
I0
sbssg25
S'WBA\xb2\xb9\xd8\x91A\t\xc5\xba\xfb$\xe6\x11\xe3'
p42
ssS'_home_matheus_pyramid_instances_python_virtualenv_lib_python2_7_site-packages_Jinja2-2_7_2-py2_7_egg_jinja2___init__'
p43
(dp44
g6
(dp45
g8
S'_home_matheus_pyramid_instances_python_virtualenv_lib_python2_7_site-packages_Jinja2-2_7_2-py2_7_egg_jinja2___init__.html'
p46
sg10
S'/home/matheus/pyramid_instances/python_virtualenv/lib/python2.7/site-packages/Jinja2-2.7.2-py2.7.egg/jinja2/__init__'
p47
sg12
g13
(g14
g15
NtRp48
(dp49
g18
I1
sg19
I0
sg20
I11
sg21
I0
sg22
I0
sg23
I0
sg24
I0
sbssg25
S'\xc2$\x8d\x9e.l\x1b;A\t,G\xf5\xf12\x91'
p50
ssS'_home_matheus_pyramid_instances_python_virtualenv_lib_python2_7_site-packages_Jinja2-2_7_2-py2_7_egg_jinja2_visitor'
p51
(dp52
g6
(dp53
S'html_filename'
p54
S'_home_matheus_pyramid_instances_python_virtualenv_lib_python2_7_site-packages_Jinja2-2_7_2-py2_7_egg_jinja2_visitor.html'
p55
sS'name'
p56
S'/home/matheus/pyramid_instances/python_virtualenv/lib/python2.7/site-packages/Jinja2-2.7.2-py2.7.egg/jinja2/visitor'
p57
sS'nums'
p58
g13
(g14
g15
NtRp59
(dp60
g18
I1
sg19
I0
sg20
I40
sg21
I0
sg22
I0
sg23
I11
sg24
I0
sbssg25
S'\xa3\xa6p\xb0\x1fq\x12\x14\xde4\x18?\x081\xaf\x15'
p61
ssS'_home_matheus_pyramid_instances_python_virtualenv_lib_python2_7_site-packages_Jinja2-2_7_2-py2_7_egg_jinja2_lexer'
p62
(dp63
g6
(dp64
g54
S'_home_matheus_pyramid_instances_python_virtualenv_lib_python2_7_site-packages_Jinja2-2_7_2-py2_7_egg_jinja2_lexer.html'
p65
sg56
S'/home/matheus/pyramid_instances/python_virtualenv/lib/python2.7/site-packages/Jinja2-2.7.2-py2.7.egg/jinja2/lexer'
p66
sg58
g13
(g14
g15
NtRp67
(dp68
g18
I1
sg19
I0
sg20
I346
sg21
I0
sg22
I0
sg23
I107
sg24
I0
sbssg25
S',\xfco\xa1i\xf3\xc5q\xd8|\xab\xaf\x81\xf2\r\x81'
p69
ssS'_home_matheus_pyramid_instances_python_virtualenv_lib_python2_7_site-packages_nose_plugins_capture'
p70
(dp71
g6
(dp72
g8
S'_home_matheus_pyramid_instances_python_virtualenv_lib_python2_7_site-packages_nose_plugins_capture.html'
p73
sg10
S'/home/matheus/pyramid_instances/python_virtualenv/lib/python2.7/site-packages/nose/plugins/capture'
p74
sg12
g13
(g14
g15
NtRp75
(dp76
g18
I1
sg19
I0
sg20
I66
sg21
I0
sg22
I0
sg23
I52
sg24
I0
sbssg25
S'f\x84\xcfE?\xed\xb1\xbae\x11`\xb5\xf1\xa8\x15\xef'
p77
ssS'_home_matheus_pyramid_instances_python_virtualenv_lib_python2_7_site-packages_nose_pyversion'
p78
(dp79
g6
(dp80
g8
S'_home_matheus_pyramid_instances_python_virtualenv_lib_python2_7_site-packages_nose_pyversion.html'
p81
sg10
S'/home/matheus/pyramid_instances/python_virtualenv/lib/python2.7/site-packages/nose/pyversion'
p82
sg12
g13
(g14
g15
NtRp83
(dp84
g18
I1
sg19
I0
sg20
I92
sg21
I0
sg22
I0
sg23
I88
sg24
I0
sbssg25
S'\xca^\x90\xcb%\xe3\xfdu\xf3\x85\x02?C\re\xa7'
p85
ssS'_home_matheus_pyramid_instances_python_virtualenv_lib_python2_7_site-packages_nose_plugins_errorclass'
p86
(dp87
g6
(dp88
g8
S'_home_matheus_pyramid_instances_python_virtualenv_lib_python2_7_site-packages_nose_plugins_errorclass.html'
p89
sg10
S'/home/matheus/pyramid_instances/python_virtualenv/lib/python2.7/site-packages/nose/plugins/errorclass'
p90
sg12
g13
(g14
g15
NtRp91
(dp92
g18
I1
sg19
I0
sg20
I65
sg21
I0
sg22
I0
sg23
I55
sg24
I0
sbssg25
S'\xa6\xc35\x0b\xbaBz\x07[(\xd1{\xf7W\xeeH'
p93
ssS'_home_matheus_pyramid_instances_python_virtualenv_lib_python2_7_site-packages_nose_plugins_manager'
p94
(dp95
g6
(dp96
g8
S'_home_matheus_pyramid_instances_python_virtualenv_lib_python2_7_site-packages_nose_plugins_manager.html'
p97
sg10
S'/home/matheus/pyramid_instances/python_virtualenv/lib/python2.7/site-packages/nose/plugins/manager'
p98
sg12
g13
(g14
g15
NtRp99
(dp100
g18
I1
sg19
I0
sg20
I265
sg21
I0
sg22
I0
sg23
I226
sg24
I0
sbssg25
S'\xb3\x90\xa8\xb6n\xdd\x80\x06\xc5\xdep|\x1a\xaeE\xb9'
p101
ssS'_home_matheus_pyramid_instances_python_virtualenv_lib_python2_7_site-packages_Jinja2-2_7_2-py2_7_egg_jinja2_runtime'
p102
(dp103
g6
(dp104
g54
S'_home_matheus_pyramid_instances_python_virtualenv_lib_python2_7_site-packages_Jinja2-2_7_2-py2_7_egg_jinja2_runtime.html'
p105
sg56
S'/home/matheus/pyramid_instances/python_virtualenv/lib/python2.7/site-packages/Jinja2-2.7.2-py2.7.egg/jinja2/runtime'
p106
sg58
g13
(g14
g15
NtRp107
(dp108
g18
I1
sg19
I0
sg20
I291
sg21
I0
sg22
I0
sg23
I175
sg24
I0
sbssg25
S'P\xedP6\xe1\x01Q\xf6zG\xbd\x077If\xf4'
p109
ssS'_home_matheus_pyramid_instances_python_virtualenv_lib_python2_7_site-packages_nose_loader'
p110
(dp111
g6
(dp112
g8
S'_home_matheus_pyramid_instances_python_virtualenv_lib_python2_7_site-packages_nose_loader.html'
p113
sg10
S'/home/matheus/pyramid_instances/python_virtualenv/lib/python2.7/site-packages/nose/loader'
p114
sg12
g13
(g14
g15
NtRp115
(dp116
g18
I1
sg19
I0
sg20
I351
sg21
I0
sg22
I0
sg23
I235
sg24
I0
sbssg25
S'\x80\xc8\r\xe9\xfd\xbb\x94\xc2_\xcf=\xe9)\x9e(\xa7'
p117
ssS'_home_matheus_pyramid_instances_python_virtualenv_lib_python2_7_site-packages_nose_plugins_logcapture'
p118
(dp119
g6
(dp120
g8
S'_home_matheus_pyramid_instances_python_virtualenv_lib_python2_7_site-packages_nose_plugins_logcapture.html'
p121
sg10
S'/home/matheus/pyramid_instances/python_virtualenv/lib/python2.7/site-packages/nose/plugins/logcapture'
p122
sg12
g13
(g14
g15
NtRp123
(dp124
g18
I1
sg19
I0
sg20
I125
sg21
I0
sg22
I0
sg23
I110
sg24
I0
sbssg25
S'0\x06v\x90\xa7m\xde\xb1\xb7\xac\xccs\xd0y\x18\xba'
p125
ssS'_home_matheus_pyramid_instances_python_virtualenv_lib_python2_7_site-packages_Jinja2-2_7_2-py2_7_egg_jinja2_loaders'
p126
(dp127
g6
(dp128
g54
S'_home_matheus_pyramid_instances_python_virtualenv_lib_python2_7_site-packages_Jinja2-2_7_2-py2_7_egg_jinja2_loaders.html'
p129
sg56
S'/home/matheus/pyramid_instances/python_virtualenv/lib/python2.7/site-packages/Jinja2-2.7.2-py2.7.egg/jinja2/loaders'
p130
sg58
g13
(g14
g15
NtRp131
(dp132
g18
I1
sg19
I0
sg20
I221
sg21
I0
sg22
I0
sg23
I136
sg24
I0
sbssg25
S'\x83&\xd8\xa0D\xd5\xfe\xbf\xb7@\xe28D\xf6\xc7]'
p133
ssS'_home_matheus_pyramid_instances_python_virtualenv_lib_python2_7_site-packages_Jinja2-2_7_2-py2_7_egg_jinja2_environment'
p134
(dp135
g6
(dp136
g54
S'_home_matheus_pyramid_instances_python_virtualenv_lib_python2_7_site-packages_Jinja2-2_7_2-py2_7_egg_jinja2_environment.html'
p137
sg56
S'/home/matheus/pyramid_instances/python_virtualenv/lib/python2.7/site-packages/Jinja2-2.7.2-py2.7.egg/jinja2/environment'
p138
sg58
g13
(g14
g15
NtRp139
(dp140
g18
I1
sg19
I0
sg20
I488
sg21
I0
sg22
I0
sg23
I297
sg24
I0
sbssg25
S'\n\x19\xa5\x96\xe6Y+2\xc0\xb5Y\x8e\xae\xf3[\xd6'
p141
ssS'_home_matheus_pyramid_instances_python_virtualenv_lib_python2_7_site-packages_nose_core'
p142
(dp143
g6
(dp144
g8
S'_home_matheus_pyramid_instances_python_virtualenv_lib_python2_7_site-packages_nose_core.html'
p145
sg10
S'/home/matheus/pyramid_instances/python_virtualenv/lib/python2.7/site-packages/nose/core'
p146
sg12
g13
(g14
g15
NtRp147
(dp148
g18
I1
sg19
I0
sg20
I162
sg21
I0
sg22
I0
sg23
I140
sg24
I0
sbssg25
S'\x92\xc0\x98\xbb\xb98\xd2F\xc0\x06p\xc9\xd3\xe5\x1cP'
p149
ssS'_home_matheus_pyramid_instances_python_virtualenv_lib_python2_7_site-packages_MarkupSafe-0_18-py2_7_egg_markupsafe__compat'
p150
(dp151
g6
(dp152
g8
S'_home_matheus_pyramid_instances_python_virtualenv_lib_python2_7_site-packages_MarkupSafe-0_18-py2_7_egg_markupsafe__compat.html'
p153
sg10
S'/home/matheus/pyramid_instances/python_virtualenv/lib/python2.7/site-packages/MarkupSafe-0.18-py2.7.egg/markupsafe/_compat'
p154
sg12
g13
(g14
g15
NtRp155
(dp156
g18
I1
sg19
I0
sg20
I12
sg21
I0
sg22
I0
sg23
I4
sg24
I0
sbssg25
S'\x8c\xb6\xc1\xcd\x85\x93\x83\xddWpn\xaaf\x8a2,'
p157
ssS'_home_matheus_pyramid_instances_python_virtualenv_lib_python2_7_site-packages_nose_plugins_cover'
p158
(dp159
g6
(dp160
g8
S'_home_matheus_pyramid_instances_python_virtualenv_lib_python2_7_site-packages_nose_plugins_cover.html'
p161
sg10
S'/home/matheus/pyramid_instances/python_virtualenv/lib/python2.7/site-packages/nose/plugins/cover'
p162
sg12
g13
(g14
g15
NtRp163
(dp164
g18
I1
sg19
I0
sg20
I138
sg21
I0
sg22
I0
sg23
I134
sg24
I0
sbssg25
S'WX\x92{\x8f\x10\xee\xbe\xb6d\xc4M\xe3O\x07\x91'
p165
ssS'_home_matheus_pyramid_instances_python_virtualenv_lib_python2_7_site-packages_nose_case'
p166
(dp167
g6
(dp168
g8
S'_home_matheus_pyramid_instances_python_virtualenv_lib_python2_7_site-packages_nose_case.html'
p169
sg10
S'/home/matheus/pyramid_instances/python_virtualenv/lib/python2.7/site-packages/nose/case'
p170
sg12
g13
(g14
g15
NtRp171
(dp172
g18
I1
sg19
I0
sg20
I204
sg21
I0
sg22
I0
sg23
I131
sg24
I0
sbssg25
S'3\xa2\xee\x11\xae5\x8e\xafw\xb3\x9b\x9e\x04n\xb4\xc1'
p173
ssS'_home_matheus_pyramid_instances_python_virtualenv_lib_python2_7_site-packages_Jinja2-2_7_2-py2_7_egg_jinja2_exceptions'
p174
(dp175
g6
(dp176
g8
S'_home_matheus_pyramid_instances_python_virtualenv_lib_python2_7_site-packages_Jinja2-2_7_2-py2_7_egg_jinja2_exceptions.html'
p177
sg10
S'/home/matheus/pyramid_instances/python_virtualenv/lib/python2.7/site-packages/Jinja2-2.7.2-py2.7.egg/jinja2/exceptions'
p178
sg12
g13
(g14
g15
NtRp179
(dp180
g18
I1
sg19
I0
sg20
I70
sg21
I0
sg22
I0
sg23
I47
sg24
I0
sbssg25
S'\xf3z\xf9\xb0i}\xb8\xf8a\x05\xda\n?\x1c\xfb\x1d'
p181
ssS'_home_matheus_pyramid_instances_python_virtualenv_lib_python2_7_site-packages_Jinja2-2_7_2-py2_7_egg_jinja2__compat'
p182
(dp183
g6
(dp184
g54
S'_home_matheus_pyramid_instances_python_virtualenv_lib_python2_7_site-packages_Jinja2-2_7_2-py2_7_egg_jinja2__compat.html'
p185
sg56
S'/home/matheus/pyramid_instances/python_virtualenv/lib/python2.7/site-packages/Jinja2-2.7.2-py2.7.egg/jinja2/_compat'
p186
sg58
g13
(g14
g15
NtRp187
(dp188
g18
I1
sg19
I0
sg20
I98
sg21
I0
sg22
I0
sg23
I35
sg24
I0
sbssg25
S'@u\t\x99\xbd\xbah\xdc\xa2\x9a\x18b\x12T\x89\x93'
p189
ssS'_home_matheus_pyramid_instances_python_virtualenv_lib_python2_7_site-packages_Jinja2-2_7_2-py2_7_egg_jinja2_optimizer'
p190
(dp191
g6
(dp192
g54
S'_home_matheus_pyramid_instances_python_virtualenv_lib_python2_7_site-packages_Jinja2-2_7_2-py2_7_egg_jinja2_optimizer.html'
p193
sg56
S'/home/matheus/pyramid_instances/python_virtualenv/lib/python2.7/site-packages/Jinja2-2.7.2-py2.7.egg/jinja2/optimizer'
p194
sg58
g13
(g14
g15
NtRp195
(dp196
g18
I1
sg19
I0
sg20
I31
sg21
I0
sg22
I0
sg23
I18
sg24
I0
sbssg25
S'gS\xcb\xe4\xa2\xf5}\x92\xfc\r\x8cd$\x84\x08T'
p197
ssS'_home_matheus_pyramid_instances_python_virtualenv_lib_python2_7_site-packages_nose_result'
p198
(dp199
g6
(dp200
g8
S'_home_matheus_pyramid_instances_python_virtualenv_lib_python2_7_site-packages_nose_result.html'
p201
sg10
S'/home/matheus/pyramid_instances/python_virtualenv/lib/python2.7/site-packages/nose/result'
p202
sg12
g13
(g14
g15
NtRp203
(dp204
g18
I1
sg19
I0
sg20
I131
sg21
I0
sg22
I0
sg23
I98
sg24
I0
sbssg25
S'GZ,\x94\x15\xaaW\x8c<\xfd\x85\xdd\xa9\x9b&g'
p205
ssS'_home_matheus_pyramid_instances_python_virtualenv_lib_python2_7_site-packages_Jinja2-2_7_2-py2_7_egg_jinja2_utils'
p206
(dp207
g6
(dp208
g54
S'_home_matheus_pyramid_instances_python_virtualenv_lib_python2_7_site-packages_Jinja2-2_7_2-py2_7_egg_jinja2_utils.html'
p209
sg56
S'/home/matheus/pyramid_instances/python_virtualenv/lib/python2.7/site-packages/Jinja2-2.7.2-py2.7.egg/jinja2/utils'
p210
sg58
g13
(g14
g15
NtRp211
(dp212
g18
I1
sg19
I0
sg20
I263
sg21
I0
sg22
I0
sg23
I166
sg24
I0
sbssg25
S'P\xab\x1c\xd0F,\x89_G\xf2o\x13\xa1|\xf4\xa8'
p213
ssS'_home_matheus_pyramid_instances_python_virtualenv_lib_python2_7_site-packages_Jinja2-2_7_2-py2_7_egg_jinja2_bccache'
p214
(dp215
g6
(dp216
g8
S'_home_matheus_pyramid_instances_python_virtualenv_lib_python2_7_site-packages_Jinja2-2_7_2-py2_7_egg_jinja2_bccache.html'
p217
sg10
S'/home/matheus/pyramid_instances/python_virtualenv/lib/python2.7/site-packages/Jinja2-2.7.2-py2.7.egg/jinja2/bccache'
p218
sg12
g13
(g14
g15
NtRp219
(dp220
g18
I1
sg19
I0
sg20
I143
sg21
I0
sg22
I0
sg23
I101
sg24
I0
sbssg25
S"\xc5\x0f'\xccc\xaf\xd1=|\xeey\xd9&\xf3>\x92"
p221
ssS'_home_matheus_pyramid_instances_python_virtualenv_lib_python2_7_site-packages_nose_selector'
p222
(dp223
g6
(dp224
g8
S'_home_matheus_pyramid_instances_python_virtualenv_lib_python2_7_site-packages_nose_selector.html'
p225
sg10
S'/home/matheus/pyramid_instances/python_virtualenv/lib/python2.7/site-packages/nose/selector'
p226
sg12
g13
(g14
g15
NtRp227
(dp228
g18
I1
sg19
I0
sg20
I134
sg21
I0
sg22
I0
sg23
I68
sg24
I0
sbssg25
S'\xfb\xe8\x1fq\xc1\xe8\x1d\xc0\x17/\x9e\x98\xc8\x04\xbf&'
p229
ssS'_home_matheus_pyramid_instances_python_virtualenv_lib_python2_7_site-packages_MarkupSafe-0_18-py2_7_egg_markupsafe___init__'
p230
(dp231
g6
(dp232
g8
S'_home_matheus_pyramid_instances_python_virtualenv_lib_python2_7_site-packages_MarkupSafe-0_18-py2_7_egg_markupsafe___init__.html'
p233
sg10
S'/home/matheus/pyramid_instances/python_virtualenv/lib/python2.7/site-packages/MarkupSafe-0.18-py2.7.egg/markupsafe/__init__'
p234
sg12
g13
(g14
g15
NtRp235
(dp236
g18
I1
sg19
I0
sg20
I112
sg21
I0
sg22
I0
sg23
I56
sg24
I0
sbssg25
S"'T\xad\xe9\x05\x81\xd4\x10l\xbc\xb8\x80&\xd0\xbf\xb6"
p237
ssS'_home_matheus_pyramid_instances_python_virtualenv_lib_python2_7_site-packages_Jinja2-2_7_2-py2_7_egg_jinja2_nodes'
p238
(dp239
g6
(dp240
g54
S'_home_matheus_pyramid_instances_python_virtualenv_lib_python2_7_site-packages_Jinja2-2_7_2-py2_7_egg_jinja2_nodes.html'
p241
sg56
S'/home/matheus/pyramid_instances/python_virtualenv/lib/python2.7/site-packages/Jinja2-2.7.2-py2.7.egg/jinja2/nodes'
p242
sg58
g13
(g14
g15
NtRp243
(dp244
g18
I1
sg19
I0
sg20
I423
sg21
I0
sg22
I0
sg23
I184
sg24
I0
sbssg25
S'\xd4A\r\xa1c\x04\xccb?\x89\xa5\xafm\xe9\xeca'
p245
ssS'_home_matheus_pyramid_instances_python_virtualenv_lib_python2_7_site-packages_MarkupSafe-0_18-py2_7_egg_markupsafe__native'
p246
(dp247
g6
(dp248
g8
S'_home_matheus_pyramid_instances_python_virtualenv_lib_python2_7_site-packages_MarkupSafe-0_18-py2_7_egg_markupsafe__native.html'
p249
sg10
S'/home/matheus/pyramid_instances/python_virtualenv/lib/python2.7/site-packages/MarkupSafe-0.18-py2.7.egg/markupsafe/_native'
p250
sg12
g13
(g14
g15
NtRp251
(dp252
g18
I1
sg19
I0
sg20
I15
sg21
I0
sg22
I0
sg23
I9
sg24
I0
sbssg25
S'O\x84\xbd\n\x04\x17DO\x85\x96b\xa3g\xce\xb2y'
p253
ssS'_home_matheus_pyramid_instances_python_virtualenv_lib_python2_7_site-packages_nose_suite'
p254
(dp255
g6
(dp256
g8
S'_home_matheus_pyramid_instances_python_virtualenv_lib_python2_7_site-packages_nose_suite.html'
p257
sg10
S'/home/matheus/pyramid_instances/python_virtualenv/lib/python2.7/site-packages/nose/suite'
p258
sg12
g13
(g14
g15
NtRp259
(dp260
g18
I1
sg19
I0
sg20
I394
sg21
I0
sg22
I0
sg23
I236
sg24
I0
sbssg25
S'd\x00\xf4\xb4)y\xaa\xed\xb1\x93C\xb5\xeb\x7f\xad\xd6'
p261
ssS'_home_matheus_pyramid_instances_python_virtualenv_lib_python2_7_site-packages_Jinja2-2_7_2-py2_7_egg_jinja2_tests'
p262
(dp263
g6
(dp264
g8
S'_home_matheus_pyramid_instances_python_virtualenv_lib_python2_7_site-packages_Jinja2-2_7_2-py2_7_egg_jinja2_tests.html'
p265
sg10
S'/home/matheus/pyramid_instances/python_virtualenv/lib/python2.7/site-packages/Jinja2-2.7.2-py2.7.egg/jinja2/tests'
p266
sg12
g13
(g14
g15
NtRp267
(dp268
g18
I1
sg19
I0
sg20
I47
sg21
I0
sg22
I0
sg23
I24
sg24
I0
sbssg25
S'\xb1[}x+R\x19\xd1\xe4\xc4\xf3\xcb"5\xe8\xfd'
p269
ssS'_home_matheus_pyramid_instances_python_virtualenv_lib_python2_7_site-packages_nose_proxy'
p270
(dp271
g6
(dp272
g54
S'_home_matheus_pyramid_instances_python_virtualenv_lib_python2_7_site-packages_nose_proxy.html'
p273
sg56
S'/home/matheus/pyramid_instances/python_virtualenv/lib/python2.7/site-packages/nose/proxy'
p274
sg58
g13
(g14
g15
NtRp275
(dp276
g18
I1
sg19
I0
sg20
I108
sg21
I0
sg22
I0
sg23
I63
sg24
I0
sbssg25
S'\x87\x95\xda)!\xdaCk\xa9\x8f.\xfb8\xf1sr'
p277
ssS'_home_matheus_pyramid_instances_python_virtualenv_lib_python2_7_site-packages_Jinja2-2_7_2-py2_7_egg_jinja2_filters'
p278
(dp279
g6
(dp280
g8
S'_home_matheus_pyramid_instances_python_virtualenv_lib_python2_7_site-packages_Jinja2-2_7_2-py2_7_egg_jinja2_filters.html'
p281
sg10
S'/home/matheus/pyramid_instances/python_virtualenv/lib/python2.7/site-packages/Jinja2-2.7.2-py2.7.egg/jinja2/filters'
p282
sg12
g13
(g14
g15
NtRp283
(dp284
g18
I1
sg19
I0
sg20
I343
sg21
I0
sg22
I0
sg23
I265
sg24
I0
sbssg25
S'\xef#\xc6\xad\x92\x96v^M\x9d\xf0\xfeR\xcal\xc5'
p285
ssS'server'
p286
(dp287
g6
(dp288
S'html_filename'
p289
S'server.html'
p290
sS'name'
p291
S'server'
p292
sS'nums'
p293
g13
(g14
g15
NtRp294
(dp295
g18
I1
sg19
I0
sg20
I120
sg21
I0
sg22
I0
sg23
I13
sg24
I0
sbssg25
S'\xd6\xf4n$v{\xcd>\x90\xa3U\xde.\x81\x95~'
p296
ssS'test_server'
p297
(dp298
g6
(dp299
g289
S'test_server.html'
p300
sg291
S'test_server'
p301
sg293
g13
(g14
g15
NtRp302
(dp303
g18
I1
sg19
I0
sg20
I75
sg21
I0
sg22
I0
sg23
I4
sg24
I0
sbssg25
S'\x92\xce1:\xe3uP\x9cKuZ^\xa6[@\xa6'
p304
ssS'_home_matheus_pyramid_instances_python_virtualenv_lib_python2_7_site-packages_Jinja2-2_7_2-py2_7_egg_jinja2_parser'
p305
(dp306
g6
(dp307
g54
S'_home_matheus_pyramid_instances_python_virtualenv_lib_python2_7_site-packages_Jinja2-2_7_2-py2_7_egg_jinja2_parser.html'
p308
sg56
S'/home/matheus/pyramid_instances/python_virtualenv/lib/python2.7/site-packages/Jinja2-2.7.2-py2.7.egg/jinja2/parser'
p309
sg58
g13
(g14
g15
NtRp310
(dp311
g18
I1
sg19
I0
sg20
I646
sg21
I0
sg22
I0
sg23
I443
sg24
I0
sbssg25
S'\xa4\x0e&\xc9]\xdc\x16\xc8\x0b\x16\x16\xffv.\xc7\xf3'
p312
ssS'_home_matheus_pyramid_instances_python_virtualenv_lib_python2_7_site-packages_Jinja2-2_7_2-py2_7_egg_jinja2_compiler'
p313
(dp314
g6
(dp315
g54
S'_home_matheus_pyramid_instances_python_virtualenv_lib_python2_7_site-packages_Jinja2-2_7_2-py2_7_egg_jinja2_compiler.html'
p316
sg56
S'/home/matheus/pyramid_instances/python_virtualenv/lib/python2.7/site-packages/Jinja2-2.7.2-py2.7.egg/jinja2/compiler'
p317
sg58
g13
(g14
g15
NtRp318
(dp319
g18
I1
sg19
I0
sg20
I1030
sg21
I0
sg22
I0
sg23
I713
sg24
I0
sbssg25
S'dq\xf4\xf5\xc4Q5~\xcb\xe7\x8e\x7fE\x19\xba\xcb'
p320
sssS'version'
p321
S'3.7.1'
p322
sS'settings'
p323
S'\x98\xa8x\xfe"r\xb5K\x98\xb1N\\\x99\x9e\xf3\xe5'
p324
sS'format'
p325
I1
s.